	.file	"Base64.cpp"
	.text
.Ltext0:
	.section	.rodata
	.type	_ZStL19piecewise_construct, @object
	.size	_ZStL19piecewise_construct, 1
_ZStL19piecewise_construct:
	.zero	1
	.local	_ZStL8__ioinit
	.comm	_ZStL8__ioinit,1,1
	.align 8
.LC0:
	.string	"ABCDEFGHIJKLMNOPQRSTUVWXYZabcdefghijklmnopqrstuvwxyz0123456789+/="
	.data
	.align 8
	.type	_ZL10BASE64_MAP, @object
	.size	_ZL10BASE64_MAP, 8
_ZL10BASE64_MAP:
	.quad	.LC0
	.text
	.type	_ZL14_Search_Index_c, @function
_ZL14_Search_Index_c:
.LFB1518:
	.file 1 "Base64.cpp"
	.loc 1 61 1
	.cfi_startproc
	pushq	%rbp
	.cfi_def_cfa_offset 16
	.cfi_offset 6, -16
	movq	%rsp, %rbp
	.cfi_def_cfa_register 6
	movl	%edi, %eax
	movb	%al, -20(%rbp)
	.loc 1 63 21
	movw	$0, -2(%rbp)
.LBB2:
	.loc 1 67 22
	movw	$0, -4(%rbp)
.L4:
	.loc 1 67 38 discriminator 1
	cmpw	$63, -4(%rbp)
	ja	.L2
	.loc 1 68 28
	movq	_ZL10BASE64_MAP(%rip), %rdx
	.loc 1 68 23
	movzwl	-4(%rbp), %eax
	.loc 1 68 28
	addq	%rdx, %rax
	.loc 1 68 9
	movzbl	(%rax), %eax
	.loc 1 68 3
	cmpb	%al, -20(%rbp)
	jne	.L3
	.loc 1 70 12
	movzwl	-4(%rbp), %eax
	movw	%ax, -2(%rbp)
	.loc 1 71 4
	jmp	.L2
.L3:
	.loc 1 67 2 discriminator 2
	addw	$1, -4(%rbp)
	jmp	.L4
.L2:
.LBE2:
	.loc 1 78 9
	movzwl	-2(%rbp), %eax
	.loc 1 80 1
	popq	%rbp
	.cfi_def_cfa 7, 8
	ret
	.cfi_endproc
.LFE1518:
	.size	_ZL14_Search_Index_c, .-_ZL14_Search_Index_c
	.section	.rodata
.LC1:
	.string	"Quotient = "
.LC2:
	.string	" Remainder = "
.LC3:
	.string	"\nThree byte = "
.LC4:
	.string	" "
.LC5:
	.string	"F - "
.LC6:
	.string	" S - "
.LC7:
	.string	" T - "
.LC8:
	.string	" F -"
	.text
	.globl	_Z15_Base64_Encode_PKcPcm
	.type	_Z15_Base64_Encode_PKcPcm, @function
_Z15_Base64_Encode_PKcPcm:
.LFB1519:
	.loc 1 83 1
	.cfi_startproc
	pushq	%rbp
	.cfi_def_cfa_offset 16
	.cfi_offset 6, -16
	movq	%rsp, %rbp
	.cfi_def_cfa_register 6
	subq	$80, %rsp
	movq	%rdi, -56(%rbp)
	movq	%rsi, -64(%rbp)
	movq	%rdx, -72(%rbp)
	.loc 1 96 8
	movq	$0, -24(%rbp)
	.loc 1 97 9
	movq	$0, -32(%rbp)
	.loc 1 98 12
	movw	$0, -2(%rbp)
	.loc 1 98 24
	movw	$0, -34(%rbp)
	.loc 1 99 21
	movw	$0, -4(%rbp)
	.loc 1 101 16
	movb	$0, -35(%rbp)
	.loc 1 106 2
	cmpq	$0, -56(%rbp)
	je	.L7
	.loc 1 106 24 discriminator 1
	cmpq	$0, -64(%rbp)
	jne	.L8
.L7:
	.loc 1 107 10
	movl	$0, %eax
	jmp	.L20
.L8:
	.loc 1 110 17
	movq	-56(%rbp), %rax
	movq	%rax, %rdi
	call	strlen
	movq	%rax, -32(%rbp)
	.loc 1 113 25
	movq	-32(%rbp), %rax
	salq	$2, %rax
	.loc 1 113 27
	movabsq	$-6148914691236517205, %rdx
	mulq	%rdx
	movq	%rdx, %rax
	shrq	%rax
	.loc 1 113 29
	addq	$3, %rax
	.loc 1 113 2
	cmpq	%rax, -72(%rbp)
	jnb	.L10
	.loc 1 114 10
	movl	$0, %eax
	jmp	.L20
.L10:
	.loc 1 118 19
	movq	-32(%rbp), %rax
	movabsq	$-6148914691236517205, %rdx
	mulq	%rdx
	movq	%rdx, %rax
	shrq	%rax
	.loc 1 118 10
	movw	%ax, -2(%rbp)
	.loc 1 118 40
	movq	-32(%rbp), %rcx
	movabsq	$-6148914691236517205, %rdx
	movq	%rcx, %rax
	mulq	%rdx
	movq	%rdx, %rax
	shrq	%rax
	movq	%rax, %rdx
	addq	%rdx, %rdx
	addq	%rax, %rdx
	movq	%rcx, %rax
	subq	%rdx, %rax
	.loc 1 118 31
	movw	%ax, -34(%rbp)
	.loc 1 120 8
	movl	$.LC1, %esi
	movl	$_ZSt4cerr, %edi
	call	_ZStlsISt11char_traitsIcEERSt13basic_ostreamIcT_ES5_PKc
	movq	%rax, %rdx
	.loc 1 120 33
	movswl	-2(%rbp), %eax
	movl	%eax, %esi
	movq	%rdx, %rdi
	call	_ZNSolsEs
	movl	$.LC2, %esi
	movq	%rax, %rdi
	call	_ZStlsISt11char_traitsIcEERSt13basic_ostreamIcT_ES5_PKc
	movq	%rax, %rdx
	.loc 1 120 50
	movswl	-34(%rbp), %eax
	movl	%eax, %esi
	movq	%rdx, %rdi
	call	_ZNSolsEs
	.loc 1 120 61
	movl	$_ZSt4endlIcSt11char_traitsIcEERSt13basic_ostreamIT_T0_ES6_, %esi
	movq	%rax, %rdi
	call	_ZNSolsEPFRSoS_E
	.loc 1 123 33
	movq	-32(%rbp), %rax
	addq	$2, %rax
	.loc 1 123 35
	movq	%rax, %rdi
	call	_Znam
	movq	%rax, -24(%rbp)
	.loc 1 123 38
	cmpq	$0, -24(%rbp)
	sete	%al
	.loc 1 123 2
	testb	%al, %al
	je	.L11
	.loc 1 124 10
	movl	$0, %eax
	jmp	.L20
.L11:
	.loc 1 126 9
	movq	-32(%rbp), %rdx
	movq	-56(%rbp), %rcx
	movq	-24(%rbp), %rax
	movq	%rcx, %rsi
	movq	%rax, %rdi
	call	memcpy
.LBB3:
	.loc 1 129 2
	cmpw	$0, -34(%rbp)
	je	.L12
.LBB4:
.LBB5:
	.loc 1 131 18
	movw	$0, -6(%rbp)
.L14:
	.loc 1 131 24 discriminator 3
	movswl	-6(%rbp), %eax
	.loc 1 131 30 discriminator 3
	movswl	-34(%rbp), %edx
	.loc 1 131 29 discriminator 3
	movl	$3, %ecx
	subl	%edx, %ecx
	movl	%ecx, %edx
	.loc 1 131 26 discriminator 3
	cmpl	%edx, %eax
	jge	.L13
	.loc 1 132 24 discriminator 2
	movswq	-6(%rbp), %rdx
	.loc 1 132 23 discriminator 2
	movq	-32(%rbp), %rax
	addq	%rax, %rdx
	movq	-24(%rbp), %rax
	addq	%rdx, %rax
	.loc 1 132 26 discriminator 2
	movb	$0, (%rax)
	.loc 1 131 3 discriminator 2
	movzwl	-6(%rbp), %eax
	addl	$1, %eax
	movw	%ax, -6(%rbp)
	jmp	.L14
.L13:
.LBE5:
	.loc 1 133 3
	movzwl	-2(%rbp), %eax
	addl	$1, %eax
	movw	%ax, -2(%rbp)
.L12:
.LBE4:
.LBE3:
.LBB6:
	.loc 1 137 26
	movw	$0, -8(%rbp)
	.loc 1 137 34
	movw	$0, -10(%rbp)
.L16:
	.loc 1 137 48 discriminator 1
	movzwl	-8(%rbp), %edx
	.loc 1 137 55 discriminator 1
	movswl	-2(%rbp), %eax
	.loc 1 137 53 discriminator 1
	cmpl	%eax, %edx
	jge	.L15
	.loc 1 140 43
	movzwl	-10(%rbp), %edx
	.loc 1 140 42
	movq	-24(%rbp), %rax
	addq	%rdx, %rax
	.loc 1 140 55
	movzbl	(%rax), %eax
	.loc 1 140 13
	cbtw
	.loc 1 140 12
	movw	%ax, -42(%rbp)
	.loc 1 141 43
	movzwl	-10(%rbp), %eax
	.loc 1 141 55
	leaq	1(%rax), %rdx
	movq	-24(%rbp), %rax
	addq	%rdx, %rax
	movzbl	(%rax), %eax
	.loc 1 141 13
	cbtw
	.loc 1 141 12
	movw	%ax, -40(%rbp)
	.loc 1 142 43
	movzwl	-10(%rbp), %eax
	.loc 1 142 55
	leaq	2(%rax), %rdx
	movq	-24(%rbp), %rax
	addq	%rdx, %rax
	movzbl	(%rax), %eax
	.loc 1 142 13
	cbtw
	.loc 1 142 12
	movw	%ax, -38(%rbp)
	.loc 1 144 9
	movl	$.LC3, %esi
	movl	$_ZSt4cout, %edi
	call	_ZStlsISt11char_traitsIcEERSt13basic_ostreamIcT_ES5_PKc
	movq	%rax, %rdx
	.loc 1 144 36
	movzwl	-42(%rbp), %eax
	movzwl	%ax, %eax
	movl	%eax, %esi
	movq	%rdx, %rdi
	call	_ZNSolsEt
	.loc 1 144 39
	movl	$.LC4, %esi
	movq	%rax, %rdi
	call	_ZStlsISt11char_traitsIcEERSt13basic_ostreamIcT_ES5_PKc
	movq	%rax, %rdx
	.loc 1 144 52
	movzwl	-40(%rbp), %eax
	movzwl	%ax, %eax
	movl	%eax, %esi
	movq	%rdx, %rdi
	call	_ZNSolsEt
	.loc 1 144 55
	movl	$.LC4, %esi
	movq	%rax, %rdi
	call	_ZStlsISt11char_traitsIcEERSt13basic_ostreamIcT_ES5_PKc
	movq	%rax, %rdx
	.loc 1 144 68
	movzwl	-38(%rbp), %eax
	movzwl	%ax, %eax
	movl	%eax, %esi
	movq	%rdx, %rdi
	call	_ZNSolsEt
	.loc 1 144 71
	movl	$_ZSt4endlIcSt11char_traitsIcEERSt13basic_ostreamIT_T0_ES6_, %esi
	movq	%rax, %rdi
	call	_ZNSolsEPFRSoS_E
	.loc 1 147 32
	movzwl	-42(%rbp), %eax
	.loc 1 147 7
	andl	$63, %eax	# [0] & 63
	movb	%al, -35(%rbp)	# (unsigned char) convert
	.loc 1 148 9
	movl	$.LC5, %esi
	movl	$_ZSt4cout, %edi
	call	_ZStlsISt11char_traitsIcEERSt13basic_ostreamIcT_ES5_PKc
	movq	%rax, %rdx
	.loc 1 148 22
	movzbl	-35(%rbp), %eax
	movl	%eax, %esi
	movq	%rdx, %rdi
	call	_ZNSolsEi
	.loc 1 151 38
	movq	_ZL10BASE64_MAP(%rip), %rdx	# Assign value for Buffer.
	.loc 1 151 34
	movzbl	-35(%rbp), %eax
	.loc 1 151 38
	leaq	(%rdx,%rax), %rcx
	.loc 1 151 19
	movzwl	-4(%rbp), %eax
	leal	1(%rax), %edx
	movw	%dx, -4(%rbp)
	movzwl	%ax, %edx
	.loc 1 151 21
	movq	-64(%rbp), %rax
	addq	%rax, %rdx
	.loc 1 151 38
	movzbl	(%rcx), %eax
	.loc 1 151 22
	movb	%al, (%rdx)
	.loc 1 154 34
	movzwl	-42(%rbp), %eax
	.loc 1 154 36
	andl	$-64, %eax
	movl	%eax, %edx
	.loc 1 154 77
	movzwl	-40(%rbp), %eax
	.loc 1 154 79
	movzwl	%ax, %eax
	.loc 1 154 107
	sall	$2, %eax
	andl	$60, %eax
	.loc 1 154 65
	orl	%edx, %eax
	.loc 1 154 7
	movb	%al, -35(%rbp)
	.loc 1 155 9
	movl	$.LC6, %esi
	movl	$_ZSt4cout, %edi
	call	_ZStlsISt11char_traitsIcEERSt13basic_ostreamIcT_ES5_PKc
	movq	%rax, %rdx
	.loc 1 155 23
	movzbl	-35(%rbp), %eax
	movl	%eax, %esi
	movq	%rdx, %rdi
	call	_ZNSolsEi
	.loc 1 156 38
	movq	_ZL10BASE64_MAP(%rip), %rdx
	.loc 1 156 34
	movzbl	-35(%rbp), %eax
	.loc 1 156 38
	leaq	(%rdx,%rax), %rcx
	.loc 1 156 19
	movzwl	-4(%rbp), %eax
	leal	1(%rax), %edx
	movw	%dx, -4(%rbp)
	movzwl	%ax, %edx
	.loc 1 156 21
	movq	-64(%rbp), %rax
	addq	%rax, %rdx
	.loc 1 156 38
	movzbl	(%rcx), %eax
	.loc 1 156 22
	movb	%al, (%rdx)
	.loc 1 159 24
	movzwl	-40(%rbp), %eax
	movzwl	%ax, %eax
	.loc 1 159 26
	sarl	$4, %eax
	.loc 1 159 8
	andl	$15, %eax
	movl	%eax, %edx
	.loc 1 159 56
	movzwl	-38(%rbp), %eax
	.loc 1 159 41
	andl	$3, %eax
	.loc 1 159 39
	orl	%edx, %eax
	.loc 1 159 7
	movb	%al, -35(%rbp)
	.loc 1 160 9
	movl	$.LC7, %esi
	movl	$_ZSt4cout, %edi
	call	_ZStlsISt11char_traitsIcEERSt13basic_ostreamIcT_ES5_PKc
	movq	%rax, %rdx
	.loc 1 160 23
	movzbl	-35(%rbp), %eax
	movl	%eax, %esi
	movq	%rdx, %rdi
	call	_ZNSolsEi
	.loc 1 161 38
	movq	_ZL10BASE64_MAP(%rip), %rdx
	.loc 1 161 34
	movzbl	-35(%rbp), %eax
	.loc 1 161 38
	leaq	(%rdx,%rax), %rcx
	.loc 1 161 19
	movzwl	-4(%rbp), %eax
	leal	1(%rax), %edx
	movw	%dx, -4(%rbp)
	movzwl	%ax, %edx
	.loc 1 161 21
	movq	-64(%rbp), %rax
	addq	%rax, %rdx
	.loc 1 161 38
	movzbl	(%rcx), %eax
	.loc 1 161 22
	movb	%al, (%rdx)
	.loc 1 164 24
	movzwl	-38(%rbp), %eax
	movzwl	%ax, %eax
	.loc 1 164 26
	sarl	$2, %eax
	.loc 1 164 7
	andl	$64, %eax
	movb	%al, -35(%rbp)
	.loc 1 165 9
	movl	$.LC8, %esi
	movl	$_ZSt4cout, %edi
	call	_ZStlsISt11char_traitsIcEERSt13basic_ostreamIcT_ES5_PKc
	movq	%rax, %rdx
	.loc 1 165 22
	movzbl	-35(%rbp), %eax
	movl	%eax, %esi
	movq	%rdx, %rdi
	call	_ZNSolsEi
	.loc 1 166 38
	movq	_ZL10BASE64_MAP(%rip), %rdx
	.loc 1 166 34
	movzbl	-35(%rbp), %eax
	.loc 1 166 38
	leaq	(%rdx,%rax), %rcx
	.loc 1 166 19
	movzwl	-4(%rbp), %eax
	leal	1(%rax), %edx
	movw	%dx, -4(%rbp)
	movzwl	%ax, %edx
	.loc 1 166 21
	movq	-64(%rbp), %rax
	addq	%rax, %rdx
	.loc 1 166 38
	movzbl	(%rcx), %eax
	.loc 1 166 22
	movb	%al, (%rdx)
	.loc 1 137 2
	addw	$1, -8(%rbp)
	.loc 1 137 81
	addw	$3, -10(%rbp)
	.loc 1 137 2
	jmp	.L16
.L15:
.LBE6:
.LBB7:
	.loc 1 171 2
	cmpw	$0, -34(%rbp)
	je	.L17
.LBB8:
.LBB9:
	.loc 1 172 18
	movw	$0, -12(%rbp)
.L18:
	.loc 1 172 24 discriminator 3
	movswl	-12(%rbp), %eax
	.loc 1 172 30 discriminator 3
	movswl	-34(%rbp), %edx
	.loc 1 172 29 discriminator 3
	movl	$3, %ecx
	subl	%edx, %ecx
	movl	%ecx, %edx
	.loc 1 172 26 discriminator 3
	cmpl	%edx, %eax
	jge	.L17
	.loc 1 173 20 discriminator 2
	movzwl	-4(%rbp), %eax
	leal	1(%rax), %edx
	movw	%dx, -4(%rbp)
	movzwl	%ax, %edx
	.loc 1 173 22 discriminator 2
	movq	-64(%rbp), %rax
	addq	%rdx, %rax
	.loc 1 173 23 discriminator 2
	movb	$61, (%rax)
	.loc 1 172 3 discriminator 2
	movzwl	-12(%rbp), %eax
	addl	$1, %eax
	movw	%ax, -12(%rbp)
	jmp	.L18
.L17:
.LBE9:
.LBE8:
.LBE7:
	.loc 1 176 9
	movzwl	-4(%rbp), %edx
	.loc 1 176 18
	movq	-64(%rbp), %rax
	addq	%rdx, %rax
	.loc 1 176 19
	movb	$0, (%rax)
	.loc 1 182 19
	cmpq	$0, -24(%rbp)
	je	.L19
	.loc 1 182 11 discriminator 1
	movq	-24(%rbp), %rax
	movq	%rax, %rdi
	call	_ZdaPv
.L19:
	.loc 1 183 10
	movq	$0, -24(%rbp)
	.loc 1 185 9
	movq	-64(%rbp), %rax
.L20:
	.loc 1 187 1 discriminator 1
	leave
	.cfi_def_cfa 7, 8
	ret
	.cfi_endproc
.LFE1519:
	.size	_Z15_Base64_Encode_PKcPcm, .-_Z15_Base64_Encode_PKcPcm
	.globl	_Z15_Base64_Decode_PKcPcs
	.type	_Z15_Base64_Decode_PKcPcs, @function
_Z15_Base64_Decode_PKcPcs:
.LFB1520:
	.loc 1 190 1
	.cfi_startproc
	pushq	%rbp
	.cfi_def_cfa_offset 16
	.cfi_offset 6, -16
	movq	%rsp, %rbp
	.cfi_def_cfa_register 6
	movq	%rdi, -8(%rbp)
	movq	%rsi, -16(%rbp)
	movl	%edx, %eax
	movw	%ax, -20(%rbp)
	.loc 1 196 9
	movl	$0, %eax
	.loc 1 198 1
	popq	%rbp
	.cfi_def_cfa 7, 8
	ret
	.cfi_endproc
.LFE1520:
	.size	_Z15_Base64_Decode_PKcPcs, .-_Z15_Base64_Decode_PKcPcs
	.type	_Z41__static_initialization_and_destruction_0ii, @function
_Z41__static_initialization_and_destruction_0ii:
.LFB2010:
	.loc 1 198 1
	.cfi_startproc
	pushq	%rbp
	.cfi_def_cfa_offset 16
	.cfi_offset 6, -16
	movq	%rsp, %rbp
	.cfi_def_cfa_register 6
	subq	$16, %rsp
	movl	%edi, -4(%rbp)
	movl	%esi, -8(%rbp)
	.loc 1 198 1
	cmpl	$1, -4(%rbp)
	jne	.L25
	.loc 1 198 1 is_stmt 0 discriminator 1
	cmpl	$65535, -8(%rbp)
	jne	.L25
	.file 2 "/usr/local/include/c++/9.3.0/iostream"
	.loc 2 74 25 is_stmt 1
	movl	$_ZStL8__ioinit, %edi
	call	_ZNSt8ios_base4InitC1Ev
	movl	$__dso_handle, %edx
	movl	$_ZStL8__ioinit, %esi
	movl	$_ZNSt8ios_base4InitD1Ev, %edi
	call	__cxa_atexit
.L25:
	.loc 1 198 1
	nop
	leave
	.cfi_def_cfa 7, 8
	ret
	.cfi_endproc
.LFE2010:
	.size	_Z41__static_initialization_and_destruction_0ii, .-_Z41__static_initialization_and_destruction_0ii
	.type	_GLOBAL__sub_I__Z15_Base64_Encode_PKcPcm, @function
_GLOBAL__sub_I__Z15_Base64_Encode_PKcPcm:
.LFB2011:
	.loc 1 198 1
	.cfi_startproc
	pushq	%rbp
	.cfi_def_cfa_offset 16
	.cfi_offset 6, -16
	movq	%rsp, %rbp
	.cfi_def_cfa_register 6
	.loc 1 198 1
	movl	$65535, %esi
	movl	$1, %edi
	call	_Z41__static_initialization_and_destruction_0ii
	popq	%rbp
	.cfi_def_cfa 7, 8
	ret
	.cfi_endproc
.LFE2011:
	.size	_GLOBAL__sub_I__Z15_Base64_Encode_PKcPcm, .-_GLOBAL__sub_I__Z15_Base64_Encode_PKcPcm
	.section	.init_array,"aw"
	.align 8
	.quad	_GLOBAL__sub_I__Z15_Base64_Encode_PKcPcm
	.text
.Letext0:
	.file 3 "/usr/local/include/c++/9.3.0/cwchar"
	.file 4 "/usr/local/include/c++/9.3.0/new"
	.file 5 "/usr/local/include/c++/9.3.0/bits/exception_ptr.h"
	.file 6 "/usr/local/include/c++/9.3.0/type_traits"
	.file 7 "/usr/local/include/c++/9.3.0/x86_64-pc-linux-gnu/bits/c++config.h"
	.file 8 "/usr/local/include/c++/9.3.0/bits/cpp_type_traits.h"
	.file 9 "/usr/local/include/c++/9.3.0/bits/stl_pair.h"
	.file 10 "/usr/local/include/c++/9.3.0/debug/debug.h"
	.file 11 "/usr/local/include/c++/9.3.0/bits/char_traits.h"
	.file 12 "/usr/local/include/c++/9.3.0/cstdint"
	.file 13 "/usr/local/include/c++/9.3.0/clocale"
	.file 14 "/usr/local/include/c++/9.3.0/cstdlib"
	.file 15 "/usr/local/include/c++/9.3.0/cstdio"
	.file 16 "/usr/local/include/c++/9.3.0/bits/basic_string.h"
	.file 17 "/usr/local/include/c++/9.3.0/system_error"
	.file 18 "/usr/local/include/c++/9.3.0/bits/ios_base.h"
	.file 19 "/usr/local/include/c++/9.3.0/cwctype"
	.file 20 "/usr/local/include/c++/9.3.0/iosfwd"
	.file 21 "/usr/local/include/c++/9.3.0/cstring"
	.file 22 "/usr/local/include/c++/9.3.0/bits/predefined_ops.h"
	.file 23 "/usr/local/include/c++/9.3.0/ext/new_allocator.h"
	.file 24 "/usr/local/include/c++/9.3.0/ext/numeric_traits.h"
	.file 25 "/usr/include/stdio.h"
	.file 26 "/usr/include/libio.h"
	.file 27 "<built-in>"
	.file 28 "/usr/local/lib/gcc/x86_64-pc-linux-gnu/9.3.0/include/stddef.h"
	.file 29 "/usr/include/wchar.h"
	.file 30 "/usr/include/time.h"
	.file 31 "/usr/include/stdint.h"
	.file 32 "/usr/include/locale.h"
	.file 33 "/usr/include/bits/types.h"
	.file 34 "/usr/local/include/c++/9.3.0/x86_64-pc-linux-gnu/bits/atomic_word.h"
	.file 35 "/usr/include/stdlib.h"
	.file 36 "/usr/include/_G_config.h"
	.file 37 "/usr/include/bits/sys_errlist.h"
	.file 38 "/usr/include/errno.h"
	.file 39 "/usr/include/wctype.h"
	.file 40 "/usr/include/string.h"
	.section	.note.GNU-stack,"",@progbits
