	.file	"Base64.cpp"
	.text
.Ltext0:
	.section	.rodata
	.type	_ZStL19piecewise_construct, @object
	.size	_ZStL19piecewise_construct, 1
_ZStL19piecewise_construct:
	.zero	1
	.local	_ZStL8__ioinit
	.comm	_ZStL8__ioinit,1,1
	.align 8
.LC0:
	.string	"ABCDEFGHIJKLMNOPQRSTUVWXYZabcdefghijklmnopqrstuvwxyz0123456789+/="
	.data
	.align 8
	.type	_ZL10BASE64_MAP, @object
	.size	_ZL10BASE64_MAP, 8
_ZL10BASE64_MAP:
	.quad	.LC0
	.text
	.type	_ZL14_Search_Index_c, @function
_ZL14_Search_Index_c:
.LFB1518:
	.file 1 "Base64.cpp"
	.loc 1 60 1
	.cfi_startproc
	pushq	%rbp
	.cfi_def_cfa_offset 16
	.cfi_offset 6, -16
	movq	%rsp, %rbp
	.cfi_def_cfa_register 6
	movl	%edi, %eax
	movb	%al, -20(%rbp)
	.loc 1 62 21
	movw	$0, -2(%rbp)
.LBB2:
	.loc 1 66 22
	movw	$0, -4(%rbp)
.L4:
	.loc 1 66 38 discriminator 1
	cmpw	$63, -4(%rbp)
	ja	.L2
	.loc 1 67 28
	movq	_ZL10BASE64_MAP(%rip), %rdx
	.loc 1 67 23
	movzwl	-4(%rbp), %eax
	.loc 1 67 28
	addq	%rdx, %rax
	.loc 1 67 9
	movzbl	(%rax), %eax
	.loc 1 67 3
	cmpb	%al, -20(%rbp)
	jne	.L3
	.loc 1 69 12
	movzwl	-4(%rbp), %eax
	movw	%ax, -2(%rbp)
	.loc 1 70 4
	jmp	.L2
.L3:
	.loc 1 66 2 discriminator 2
	addw	$1, -4(%rbp)
	jmp	.L4
.L2:
.LBE2:
	.loc 1 77 9
	movzwl	-2(%rbp), %eax
	.loc 1 79 1
	popq	%rbp
	.cfi_def_cfa 7, 8
	ret
	.cfi_endproc
.LFE1518:
	.size	_ZL14_Search_Index_c, .-_ZL14_Search_Index_c
	.globl	_Z15_Base64_Encode_PKcPcs
	.type	_Z15_Base64_Encode_PKcPcs, @function
_Z15_Base64_Encode_PKcPcs:
.LFB1519:
	.loc 1 82 1
	.cfi_startproc
	pushq	%rbp
	.cfi_def_cfa_offset 16
	.cfi_offset 6, -16
	movq	%rsp, %rbp
	.cfi_def_cfa_register 6
	subq	$64, %rsp
	movq	%rdi, -40(%rbp)
	movq	%rsi, -48(%rbp)
	movl	%edx, %eax
	movw	%ax, -52(%rbp)
	.loc 1 87 12
	movw	$0, -12(%rbp)
	.loc 1 88 12
	movw	$0, -14(%rbp)
	.loc 1 89 12
	movw	$0, -16(%rbp)
	.loc 1 90 8
	movq	$0, -24(%rbp)
	.loc 1 91 21
	movw	$0, -2(%rbp)
	.loc 1 93 16
	movb	$0, -25(%rbp)
	.loc 1 93 29
	movb	$0, -26(%rbp)
	.loc 1 93 42
	movb	$0, -27(%rbp)
	.loc 1 98 2
	cmpq	$0, -40(%rbp)
	je	.L7
	.loc 1 98 24 discriminator 1
	cmpq	$0, -48(%rbp)
	je	.L7
	.loc 1 98 42 discriminator 2
	cmpw	$0, -52(%rbp)
	jg	.L8
.L7:
	.loc 1 99 10
	movl	$0, %eax
	jmp	.L21
.L8:
	.loc 1 102 20
	movq	-40(%rbp), %rax
	movq	%rax, %rdi
	call	strlen
	.loc 1 102 13
	movw	%ax, -12(%rbp)
	.loc 1 103 30
	movswl	-12(%rbp), %eax
	.loc 1 103 40
	addl	%eax, %eax
	cltq
	.loc 1 103 51
	movq	%rax, %rdi
	call	_Znam
	movq	%rax, -24(%rbp)
	.loc 1 103 54
	cmpq	$0, -24(%rbp)
	setne	%al
	.loc 1 103 3
	testb	%al, %al
	je	.L10
	.loc 1 104 5
	movzwl	-12(%rbp), %eax
	movswl	%ax, %edx
	imull	$21846, %edx, %edx
	shrl	$16, %edx
	sarw	$15, %ax
	movl	%edx, %esi
	subl	%eax, %esi
	movl	%esi, %eax
	movw	%ax, -14(%rbp)
	.loc 1 105 28
	movzwl	-12(%rbp), %eax
	movswl	%ax, %edx
	imull	$21846, %edx, %edx
	shrl	$16, %edx
	sarw	$15, %ax
	movl	%edx, %esi
	subl	%eax, %esi
	movl	%esi, %eax
	.loc 1 105 31
	movl	%eax, %edx
	sall	$2, %eax
	subl	%eax, %edx
	.loc 1 105 16
	movzwl	-12(%rbp), %eax
	addl	%edx, %eax
	.loc 1 105 5
	movw	%ax, -16(%rbp)
	.loc 1 111 6
	movswl	-52(%rbp), %edx
	.loc 1 111 18
	movswl	-12(%rbp), %eax
	.loc 1 111 28
	sall	$2, %eax
	.loc 1 111 30
	movslq	%eax, %rcx
	imulq	$1431655766, %rcx, %rcx
	shrq	$32, %rcx
	sarl	$31, %eax
	movl	%ecx, %edi
	subl	%eax, %edi
	movl	%edi, %eax
	.loc 1 111 2
	cmpl	%eax, %edx
	jg	.L12
	jmp	.L22
.L10:
	.loc 1 107 11
	movl	$0, %eax
	jmp	.L21
.L22:
	.loc 1 114 24
	cmpq	$0, -24(%rbp)
	je	.L13
	.loc 1 114 12 discriminator 1
	movq	-24(%rbp), %rax
	movq	%rax, %rdi
	call	_ZdaPv
.L13:
	.loc 1 115 15
	movq	$0, -24(%rbp)
	.loc 1 116 10
	movl	$0, %eax
	jmp	.L21
.L12:
	.loc 1 120 8
	movswq	-12(%rbp), %rdx
	movq	-40(%rbp), %rcx
	movq	-24(%rbp), %rax
	movq	%rcx, %rsi
	movq	%rax, %rdi
	call	memcpy
.LBB3:
	.loc 1 123 2
	cmpw	$0, -16(%rbp)
	je	.L14
.LBB4:
.LBB5:
	.loc 1 126 25
	movzwl	-16(%rbp), %eax
	movl	$3, %edx
	subl	%eax, %edx
	movl	%edx, %eax
	.loc 1 126 18
	movw	%ax, -4(%rbp)
	.loc 1 126 29
	movw	$0, -6(%rbp)
.L15:
	.loc 1 126 49 discriminator 3
	cmpw	$0, -4(%rbp)
	jle	.L14
	.loc 1 127 17 discriminator 2
	movswl	-12(%rbp), %edx
	.loc 1 127 28 discriminator 2
	movswl	-6(%rbp), %eax
	.loc 1 127 27 discriminator 2
	addl	%edx, %eax
	movslq	%eax, %rdx
	.loc 1 127 37 discriminator 2
	movq	-24(%rbp), %rax
	addq	%rdx, %rax
	.loc 1 127 38 discriminator 2
	movb	$0, (%rax)
	.loc 1 126 3 discriminator 2
	movzwl	-4(%rbp), %eax
	subl	$1, %eax
	movw	%ax, -4(%rbp)
	movzwl	-6(%rbp), %eax
	addl	$1, %eax
	movw	%ax, -6(%rbp)
	jmp	.L15
.L14:
.LBE5:
.LBE4:
.LBE3:
.LBB6:
	.loc 1 132 17
	cmpw	$0, -16(%rbp)
	je	.L16
	.loc 1 132 36 discriminator 1
	movzwl	-14(%rbp), %eax
	addl	$1, %eax
	jmp	.L17
.L16:
	.loc 1 132 17 discriminator 2
	movzwl	-14(%rbp), %eax
.L17:
	.loc 1 132 17 is_stmt 0 discriminator 4
	movw	%ax, -8(%rbp)
	.loc 1 132 39 is_stmt 1 discriminator 4
	movw	$0, -10(%rbp)
.L19:
	.loc 1 132 60 discriminator 7
	cmpw	$0, -8(%rbp)
	jle	.L18
	.loc 1 136 25 discriminator 6
	movswq	-10(%rbp), %rdx
	.loc 1 136 24 discriminator 6
	movq	-40(%rbp), %rax
	addq	%rdx, %rax
	.loc 1 136 37 discriminator 6
	movzbl	(%rax), %eax
	.loc 1 136 13 discriminator 6
	movb	%al, -25(%rbp)
	.loc 1 137 25 discriminator 6
	movswq	-10(%rbp), %rax
	.loc 1 137 37 discriminator 6
	leaq	1(%rax), %rdx
	movq	-40(%rbp), %rax
	addq	%rdx, %rax
	movzbl	(%rax), %eax
	.loc 1 137 13 discriminator 6
	movb	%al, -26(%rbp)
	.loc 1 138 25 discriminator 6
	movswq	-10(%rbp), %rax
	.loc 1 138 37 discriminator 6
	leaq	2(%rax), %rdx
	movq	-40(%rbp), %rax
	addq	%rdx, %rax
	movzbl	(%rax), %eax
	.loc 1 138 13 discriminator 6
	movb	%al, -27(%rbp)
	.loc 1 142 42 discriminator 6
	movzbl	-25(%rbp), %eax
	andl	$52, %eax
	.loc 1 142 14 discriminator 6
	movb	%al, -31(%rbp)
	.loc 1 143 45 discriminator 6
	movq	_ZL10BASE64_MAP(%rip), %rdx
	.loc 1 143 44 discriminator 6
	movzbl	-31(%rbp), %eax
	movzbl	%al, %eax
	.loc 1 143 45 discriminator 6
	leaq	(%rdx,%rax), %rcx
	.loc 1 143 19 discriminator 6
	movzwl	-2(%rbp), %eax
	leal	1(%rax), %edx
	movw	%dx, -2(%rbp)
	movzwl	%ax, %edx
	.loc 1 143 21 discriminator 6
	movq	-48(%rbp), %rax
	addq	%rax, %rdx
	.loc 1 143 45 discriminator 6
	movzbl	(%rcx), %eax
	.loc 1 143 22 discriminator 6
	movb	%al, (%rdx)
	.loc 1 146 47 discriminator 6
	movzbl	-25(%rbp), %eax
	.loc 1 146 58 discriminator 6
	sarl	$6, %eax
	.loc 1 146 67 discriminator 6
	movl	%eax, %edx
	.loc 1 146 85 discriminator 6
	movzbl	-26(%rbp), %eax
	.loc 1 146 96 discriminator 6
	sall	$4, %eax
	.loc 1 146 104 discriminator 6
	sarl	$2, %eax
	.loc 1 146 67 discriminator 6
	orl	%edx, %eax
	.loc 1 146 14 discriminator 6
	movb	%al, -30(%rbp)
	.loc 1 147 45 discriminator 6
	movq	_ZL10BASE64_MAP(%rip), %rdx
	.loc 1 147 44 discriminator 6
	movzbl	-30(%rbp), %eax
	movzbl	%al, %eax
	.loc 1 147 45 discriminator 6
	leaq	(%rdx,%rax), %rcx
	.loc 1 147 19 discriminator 6
	movzwl	-2(%rbp), %eax
	leal	1(%rax), %edx
	movw	%dx, -2(%rbp)
	movzwl	%ax, %edx
	.loc 1 147 21 discriminator 6
	movq	-48(%rbp), %rax
	addq	%rax, %rdx
	.loc 1 147 45 discriminator 6
	movzbl	(%rcx), %eax
	.loc 1 147 22 discriminator 6
	movb	%al, (%rdx)
	.loc 1 150 47 discriminator 6
	movzbl	-26(%rbp), %eax
	.loc 1 150 58 discriminator 6
	sarl	$4, %eax
	.loc 1 150 67 discriminator 6
	movl	%eax, %edx
	.loc 1 150 85 discriminator 6
	movzbl	-27(%rbp), %eax
	.loc 1 150 96 discriminator 6
	sall	$6, %eax
	.loc 1 150 104 discriminator 6
	sarl	$2, %eax
	.loc 1 150 67 discriminator 6
	orl	%edx, %eax
	.loc 1 150 14 discriminator 6
	movb	%al, -29(%rbp)
	.loc 1 151 45 discriminator 6
	movq	_ZL10BASE64_MAP(%rip), %rdx
	.loc 1 151 44 discriminator 6
	movzbl	-29(%rbp), %eax
	movzbl	%al, %eax
	.loc 1 151 45 discriminator 6
	leaq	(%rdx,%rax), %rcx
	.loc 1 151 19 discriminator 6
	movzwl	-2(%rbp), %eax
	leal	1(%rax), %edx
	movw	%dx, -2(%rbp)
	movzwl	%ax, %edx
	.loc 1 151 21 discriminator 6
	movq	-48(%rbp), %rax
	addq	%rax, %rdx
	.loc 1 151 45 discriminator 6
	movzbl	(%rcx), %eax
	.loc 1 151 22 discriminator 6
	movb	%al, (%rdx)
	.loc 1 153 31 discriminator 6
	movzbl	-27(%rbp), %eax
	.loc 1 153 42 discriminator 6
	sarl	$2, %eax
	.loc 1 153 14 discriminator 6
	movb	%al, -28(%rbp)
	.loc 1 154 45 discriminator 6
	movq	_ZL10BASE64_MAP(%rip), %rdx
	.loc 1 154 44 discriminator 6
	movzbl	-28(%rbp), %eax
	movzbl	%al, %eax
	.loc 1 154 45 discriminator 6
	leaq	(%rdx,%rax), %rcx
	.loc 1 154 19 discriminator 6
	movzwl	-2(%rbp), %eax
	leal	1(%rax), %edx
	movw	%dx, -2(%rbp)
	movzwl	%ax, %edx
	.loc 1 154 21 discriminator 6
	movq	-48(%rbp), %rax
	addq	%rax, %rdx
	.loc 1 154 45 discriminator 6
	movzbl	(%rcx), %eax
	.loc 1 154 22 discriminator 6
	movb	%al, (%rdx)
	.loc 1 132 2 discriminator 6
	movzwl	-8(%rbp), %eax
	subl	$1, %eax
	movw	%ax, -8(%rbp)
	.loc 1 132 83 discriminator 6
	movzwl	-10(%rbp), %eax
	addl	$3, %eax
	movw	%ax, -10(%rbp)
	.loc 1 132 2 discriminator 6
	jmp	.L19
.L18:
.LBE6:
	.loc 1 157 9
	movzwl	-2(%rbp), %edx
	.loc 1 157 18
	movq	-48(%rbp), %rax
	addq	%rdx, %rax
	.loc 1 157 19
	movb	$0, (%rax)
	.loc 1 163 23
	cmpq	$0, -24(%rbp)
	je	.L20
	.loc 1 163 11 discriminator 1
	movq	-24(%rbp), %rax
	movq	%rax, %rdi
	call	_ZdaPv
.L20:
	.loc 1 164 14
	movq	$0, -24(%rbp)
	.loc 1 166 9
	movq	-48(%rbp), %rax
.L21:
	.loc 1 168 1 discriminator 1
	leave
	.cfi_def_cfa 7, 8
	ret
	.cfi_endproc
.LFE1519:
	.size	_Z15_Base64_Encode_PKcPcs, .-_Z15_Base64_Encode_PKcPcs
	.globl	_Z15_Base64_Decode_PKcPcs
	.type	_Z15_Base64_Decode_PKcPcs, @function
_Z15_Base64_Decode_PKcPcs:
.LFB1520:
	.loc 1 171 1
	.cfi_startproc
	pushq	%rbp
	.cfi_def_cfa_offset 16
	.cfi_offset 6, -16
	movq	%rsp, %rbp
	.cfi_def_cfa_register 6
	subq	$64, %rsp
	movq	%rdi, -40(%rbp)
	movq	%rsi, -48(%rbp)
	movl	%edx, %eax
	movw	%ax, -52(%rbp)
	.loc 1 181 12
	movw	$0, -8(%rbp)
	.loc 1 182 21
	movw	$0, -10(%rbp)
	.loc 1 182 26
	movw	$0, -12(%rbp)
	.loc 1 184 21
	movw	$0, -2(%rbp)
	.loc 1 185 21
	movw	$0, -14(%rbp)
	.loc 1 185 35
	movw	$0, -16(%rbp)
	.loc 1 185 49
	movw	$0, -18(%rbp)
	.loc 1 185 63
	movw	$0, -20(%rbp)
	.loc 1 190 2
	cmpq	$0, -40(%rbp)
	je	.L24
	.loc 1 190 25 discriminator 1
	cmpq	$0, -48(%rbp)
	je	.L24
	.loc 1 190 43 discriminator 2
	cmpw	$0, -52(%rbp)
	jg	.L25
.L24:
	.loc 1 191 10
	movl	$0, %eax
	jmp	.L26
.L25:
	.loc 1 195 18
	movq	-40(%rbp), %rax
	movq	%rax, %rdi
	call	strlen
	.loc 1 195 11
	movw	%ax, -8(%rbp)
	.loc 1 198 13
	movzwl	-8(%rbp), %eax
	leal	3(%rax), %edx
	testw	%ax, %ax
	cmovs	%edx, %eax
	sarw	$2, %ax
	.loc 1 198 3
	movw	%ax, -10(%rbp)
	.loc 1 201 18
	movzwl	-8(%rbp), %edx
	.loc 1 201 29
	movzwl	-8(%rbp), %eax
	leal	3(%rax), %ecx
	testw	%ax, %ax
	cmovs	%ecx, %eax
	sarw	$2, %ax
	.loc 1 201 32
	sall	$2, %eax
	.loc 1 201 8
	subl	%eax, %edx
	movl	%edx, %eax
	movw	%ax, -12(%rbp)
	.loc 1 201 36
	cmpw	$0, -12(%rbp)
	setne	%al
	.loc 1 201 2
	testb	%al, %al
	je	.L27
	.loc 1 204 10
	movl	$0, %eax
	jmp	.L26
.L27:
	.loc 1 209 6
	movswl	-52(%rbp), %ecx
	.loc 1 209 18
	movswl	-8(%rbp), %edx
	.loc 1 209 27
	movl	%edx, %eax
	addl	%eax, %eax
	addl	%edx, %eax
	.loc 1 209 29
	leal	3(%rax), %edx
	testl	%eax, %eax
	cmovs	%edx, %eax
	sarl	$2, %eax
	.loc 1 209 2
	cmpl	%eax, %ecx
	jg	.L28
	.loc 1 212 10
	movl	$0, %eax
	jmp	.L26
.L28:
.LBB7:
	.loc 1 223 26
	movw	$0, -4(%rbp)
	.loc 1 223 36
	movw	$0, -6(%rbp)
.L30:
	.loc 1 223 57 discriminator 3
	movzwl	-4(%rbp), %eax
	cmpw	-10(%rbp), %ax
	jnb	.L29
	.loc 1 225 41 discriminator 2
	movzwl	-6(%rbp), %edx
	.loc 1 225 40 discriminator 2
	movq	-40(%rbp), %rax
	addq	%rdx, %rax
	.loc 1 225 53 discriminator 2
	movzbl	(%rax), %eax
	.loc 1 225 28 discriminator 2
	movsbl	%al, %eax
	movl	%eax, %edi
	call	_ZL14_Search_Index_c
	movw	%ax, -14(%rbp)
	.loc 1 226 41 discriminator 2
	movzwl	-6(%rbp), %eax
	.loc 1 226 53 discriminator 2
	leaq	1(%rax), %rdx
	movq	-40(%rbp), %rax
	addq	%rdx, %rax
	movzbl	(%rax), %eax
	.loc 1 226 28 discriminator 2
	movsbl	%al, %eax
	movl	%eax, %edi
	call	_ZL14_Search_Index_c
	movw	%ax, -16(%rbp)
	.loc 1 227 41 discriminator 2
	movzwl	-6(%rbp), %eax
	.loc 1 227 53 discriminator 2
	leaq	2(%rax), %rdx
	movq	-40(%rbp), %rax
	addq	%rdx, %rax
	movzbl	(%rax), %eax
	.loc 1 227 28 discriminator 2
	movsbl	%al, %eax
	movl	%eax, %edi
	call	_ZL14_Search_Index_c
	movw	%ax, -18(%rbp)
	.loc 1 228 41 discriminator 2
	movzwl	-6(%rbp), %eax
	.loc 1 228 53 discriminator 2
	leaq	3(%rax), %rdx
	movq	-40(%rbp), %rax
	addq	%rdx, %rax
	movzbl	(%rax), %eax
	.loc 1 228 28 discriminator 2
	movsbl	%al, %eax
	movl	%eax, %edi
	call	_ZL14_Search_Index_c
	movw	%ax, -20(%rbp)
	.loc 1 233 50 discriminator 2
	movzwl	-14(%rbp), %eax
	movl	%eax, %edx
	.loc 1 233 79 discriminator 2
	movzwl	-16(%rbp), %eax
	sall	$6, %eax
	.loc 1 233 50 discriminator 2
	movl	%edx, %ecx
	orl	%eax, %ecx
	.loc 1 233 19 discriminator 2
	movzwl	-2(%rbp), %eax
	leal	1(%rax), %edx
	movw	%dx, -2(%rbp)
	movzwl	%ax, %edx
	.loc 1 233 21 discriminator 2
	movq	-48(%rbp), %rax
	addq	%rdx, %rax
	.loc 1 233 23 discriminator 2
	movl	%ecx, %edx
	.loc 1 233 22 discriminator 2
	movb	%dl, (%rax)
	.loc 1 236 40 discriminator 2
	movzwl	-16(%rbp), %eax
	.loc 1 236 51 discriminator 2
	sarl	$2, %eax
	.loc 1 236 23 discriminator 2
	movl	%eax, %esi
	.loc 1 236 89 discriminator 2
	movzwl	-18(%rbp), %eax
	sall	$4, %eax
	movl	%eax, %ecx
	.loc 1 236 19 discriminator 2
	movzwl	-2(%rbp), %eax
	leal	1(%rax), %edx
	movw	%dx, -2(%rbp)
	movzwl	%ax, %edx
	.loc 1 236 21 discriminator 2
	movq	-48(%rbp), %rax
	addq	%rdx, %rax
	.loc 1 236 60 discriminator 2
	orl	%ecx, %esi
	movl	%esi, %edx
	.loc 1 236 22 discriminator 2
	movb	%dl, (%rax)
	.loc 1 239 66 discriminator 2
	movzwl	-20(%rbp), %eax
	sall	$2, %eax
	movl	%eax, %esi
	.loc 1 239 78 discriminator 2
	movzwl	-18(%rbp), %eax
	.loc 1 239 89 discriminator 2
	sarl	$6, %eax
	.loc 1 239 23 discriminator 2
	movl	%eax, %ecx
	.loc 1 239 19 discriminator 2
	movzwl	-2(%rbp), %eax
	leal	1(%rax), %edx
	movw	%dx, -2(%rbp)
	movzwl	%ax, %edx
	.loc 1 239 21 discriminator 2
	movq	-48(%rbp), %rax
	addq	%rdx, %rax
	.loc 1 239 75 discriminator 2
	orl	%ecx, %esi
	movl	%esi, %edx
	.loc 1 239 22 discriminator 2
	movb	%dl, (%rax)
	.loc 1 223 2 discriminator 2
	addw	$1, -4(%rbp)
	.loc 1 223 80 discriminator 2
	addw	$4, -6(%rbp)
	.loc 1 223 2 discriminator 2
	jmp	.L30
.L29:
.LBE7:
	.loc 1 242 9
	movzwl	-2(%rbp), %edx
	.loc 1 242 18
	movq	-48(%rbp), %rax
	addq	%rdx, %rax
	.loc 1 242 19
	movb	$0, (%rax)
	.loc 1 250 9
	movq	-48(%rbp), %rax
.L26:
	.loc 1 252 1
	leave
	.cfi_def_cfa 7, 8
	ret
	.cfi_endproc
.LFE1520:
	.size	_Z15_Base64_Decode_PKcPcs, .-_Z15_Base64_Decode_PKcPcs
	.type	_Z41__static_initialization_and_destruction_0ii, @function
_Z41__static_initialization_and_destruction_0ii:
.LFB2001:
	.loc 1 252 1
	.cfi_startproc
	pushq	%rbp
	.cfi_def_cfa_offset 16
	.cfi_offset 6, -16
	movq	%rsp, %rbp
	.cfi_def_cfa_register 6
	subq	$16, %rsp
	movl	%edi, -4(%rbp)
	movl	%esi, -8(%rbp)
	.loc 1 252 1
	cmpl	$1, -4(%rbp)
	jne	.L33
	.loc 1 252 1 is_stmt 0 discriminator 1
	cmpl	$65535, -8(%rbp)
	jne	.L33
	.file 2 "/usr/local/include/c++/9.3.0/iostream"
	.loc 2 74 25 is_stmt 1
	movl	$_ZStL8__ioinit, %edi
	call	_ZNSt8ios_base4InitC1Ev
	movl	$__dso_handle, %edx
	movl	$_ZStL8__ioinit, %esi
	movl	$_ZNSt8ios_base4InitD1Ev, %edi
	call	__cxa_atexit
.L33:
	.loc 1 252 1
	nop
	leave
	.cfi_def_cfa 7, 8
	ret
	.cfi_endproc
.LFE2001:
	.size	_Z41__static_initialization_and_destruction_0ii, .-_Z41__static_initialization_and_destruction_0ii
	.type	_GLOBAL__sub_I__Z15_Base64_Encode_PKcPcs, @function
_GLOBAL__sub_I__Z15_Base64_Encode_PKcPcs:
.LFB2002:
	.loc 1 252 1
	.cfi_startproc
	pushq	%rbp
	.cfi_def_cfa_offset 16
	.cfi_offset 6, -16
	movq	%rsp, %rbp
	.cfi_def_cfa_register 6
	.loc 1 252 1
	movl	$65535, %esi
	movl	$1, %edi
	call	_Z41__static_initialization_and_destruction_0ii
	popq	%rbp
	.cfi_def_cfa 7, 8
	ret
	.cfi_endproc
.LFE2002:
	.size	_GLOBAL__sub_I__Z15_Base64_Encode_PKcPcs, .-_GLOBAL__sub_I__Z15_Base64_Encode_PKcPcs
	.section	.init_array,"aw"
	.align 8
	.quad	_GLOBAL__sub_I__Z15_Base64_Encode_PKcPcs
	.text
.Letext0:
	.file 3 "/usr/local/include/c++/9.3.0/cwchar"
	.file 4 "/usr/local/include/c++/9.3.0/new"
	.file 5 "/usr/local/include/c++/9.3.0/bits/exception_ptr.h"
	.file 6 "/usr/local/include/c++/9.3.0/type_traits"
	.file 7 "/usr/local/include/c++/9.3.0/x86_64-pc-linux-gnu/bits/c++config.h"
	.file 8 "/usr/local/include/c++/9.3.0/bits/cpp_type_traits.h"
	.file 9 "/usr/local/include/c++/9.3.0/bits/stl_pair.h"
	.file 10 "/usr/local/include/c++/9.3.0/debug/debug.h"
	.file 11 "/usr/local/include/c++/9.3.0/bits/char_traits.h"
	.file 12 "/usr/local/include/c++/9.3.0/cstdint"
	.file 13 "/usr/local/include/c++/9.3.0/clocale"
	.file 14 "/usr/local/include/c++/9.3.0/cstdlib"
	.file 15 "/usr/local/include/c++/9.3.0/cstdio"
	.file 16 "/usr/local/include/c++/9.3.0/bits/basic_string.h"
	.file 17 "/usr/local/include/c++/9.3.0/system_error"
	.file 18 "/usr/local/include/c++/9.3.0/bits/ios_base.h"
	.file 19 "/usr/local/include/c++/9.3.0/cwctype"
	.file 20 "/usr/local/include/c++/9.3.0/iosfwd"
	.file 21 "/usr/local/include/c++/9.3.0/cstring"
	.file 22 "/usr/local/include/c++/9.3.0/bits/predefined_ops.h"
	.file 23 "/usr/local/include/c++/9.3.0/ext/new_allocator.h"
	.file 24 "/usr/local/include/c++/9.3.0/ext/numeric_traits.h"
	.file 25 "/usr/include/stdio.h"
	.file 26 "/usr/include/libio.h"
	.file 27 "<built-in>"
	.file 28 "/usr/local/lib/gcc/x86_64-pc-linux-gnu/9.3.0/include/stddef.h"
	.file 29 "/usr/include/wchar.h"
	.file 30 "/usr/include/time.h"
	.file 31 "/usr/include/stdint.h"
	.file 32 "/usr/include/locale.h"
	.file 33 "/usr/include/bits/types.h"
	.file 34 "/usr/local/include/c++/9.3.0/x86_64-pc-linux-gnu/bits/atomic_word.h"
	.file 35 "/usr/include/stdlib.h"
	.file 36 "/usr/include/_G_config.h"
	.file 37 "/usr/include/bits/sys_errlist.h"
	.file 38 "/usr/include/errno.h"
	.file 39 "/usr/include/wctype.h"
	.file 40 "/usr/include/string.h"
	.section	.note.GNU-stack,"",@progbits
